; ModuleID = 'source-C-CXX/12/1601.c'
source_filename = "source-C-CXX/12/1601.c"
target datalayout = "e-m:e-p270:32:32-p271:32:32-p272:64:64-i64:64-f80:128-n8:16:32:64-S128"
target triple = "x86_64-pc-linux-gnu"

@.str = private unnamed_addr constant [3 x i8] c"%d\00", align 1
@.str.2 = private unnamed_addr constant [4 x i8] c" %d\00", align 1

; Function Attrs: nofree nounwind sspstrong uwtable
define dso_local i32 @main() local_unnamed_addr #0 {
  %1 = alloca [10000 x i32], align 16
  %2 = alloca i32, align 4
  %3 = bitcast [10000 x i32]* %1 to i8*
  call void @llvm.lifetime.start.p0i8(i64 40000, i8* nonnull %3) #3
  %4 = bitcast i32* %2 to i8*
  call void @llvm.lifetime.start.p0i8(i64 4, i8* nonnull %4) #3
  %5 = call i32 (i8*, ...) @__isoc99_scanf(i8* getelementptr inbounds ([3 x i8], [3 x i8]* @.str, i64 0, i64 0), i32* nonnull %2)
  %6 = load i32, i32* %2, align 4, !tbaa !5
  %7 = icmp sgt i32 %6, 0
  br i1 %7, label %12, label %57

8:                                                ; preds = %12
  %9 = icmp sgt i32 %17, 0
  br i1 %9, label %10, label %57

10:                                               ; preds = %8
  %11 = getelementptr inbounds [10000 x i32], [10000 x i32]* %1, i64 0, i64 0
  br label %20

12:                                               ; preds = %0, %12
  %13 = phi i64 [ %16, %12 ], [ 0, %0 ]
  %14 = getelementptr inbounds [10000 x i32], [10000 x i32]* %1, i64 0, i64 %13
  %15 = call i32 (i8*, ...) @__isoc99_scanf(i8* getelementptr inbounds ([3 x i8], [3 x i8]* @.str, i64 0, i64 0), i32* nonnull %14)
  %16 = add nuw nsw i64 %13, 1
  %17 = load i32, i32* %2, align 4, !tbaa !5
  %18 = sext i32 %17 to i64
  %19 = icmp slt i64 %16, %18
  br i1 %19, label %12, label %8, !llvm.loop !9

20:                                               ; preds = %10, %51
  %21 = phi i64 [ 0, %10 ], [ %53, %51 ]
  %22 = phi i32 [ %17, %10 ], [ %54, %51 ]
  %23 = phi i32 [ undef, %10 ], [ %52, %51 ]
  %24 = icmp sgt i32 %22, 0
  br i1 %24, label %25, label %39

25:                                               ; preds = %20
  %26 = getelementptr inbounds [10000 x i32], [10000 x i32]* %1, i64 0, i64 %21
  %27 = load i32, i32* %26, align 4, !tbaa !5
  %28 = zext i32 %22 to i64
  br label %31

29:                                               ; preds = %31
  %30 = icmp eq i64 %38, %28
  br i1 %30, label %41, label %31, !llvm.loop !11

31:                                               ; preds = %25, %29
  %32 = phi i64 [ 0, %25 ], [ %38, %29 ]
  %33 = getelementptr inbounds [10000 x i32], [10000 x i32]* %1, i64 0, i64 %32
  %34 = load i32, i32* %33, align 4, !tbaa !5
  %35 = icmp eq i32 %27, %34
  %36 = icmp ugt i64 %21, %32
  %37 = select i1 %35, i1 %36, i1 false
  %38 = add nuw nsw i64 %32, 1
  br i1 %37, label %51, label %29

39:                                               ; preds = %20
  %40 = icmp eq i32 %23, 0
  br i1 %40, label %51, label %41

41:                                               ; preds = %29, %39
  %42 = phi i32 [ %23, %39 ], [ 1, %29 ]
  %43 = icmp eq i64 %21, 0
  br i1 %43, label %48, label %44

44:                                               ; preds = %41
  %45 = getelementptr inbounds [10000 x i32], [10000 x i32]* %1, i64 0, i64 %21
  %46 = load i32, i32* %45, align 4, !tbaa !5
  %47 = call i32 (i8*, ...) @printf(i8* nonnull dereferenceable(1) getelementptr inbounds ([4 x i8], [4 x i8]* @.str.2, i64 0, i64 0), i32 %46)
  br label %51

48:                                               ; preds = %41
  %49 = load i32, i32* %11, align 16, !tbaa !5
  %50 = call i32 (i8*, ...) @printf(i8* nonnull dereferenceable(1) getelementptr inbounds ([3 x i8], [3 x i8]* @.str, i64 0, i64 0), i32 %49)
  br label %51

51:                                               ; preds = %31, %39, %48, %44
  %52 = phi i32 [ 0, %39 ], [ %42, %48 ], [ %42, %44 ], [ 0, %31 ]
  %53 = add nuw nsw i64 %21, 1
  %54 = load i32, i32* %2, align 4, !tbaa !5
  %55 = sext i32 %54 to i64
  %56 = icmp slt i64 %53, %55
  br i1 %56, label %20, label %57, !llvm.loop !12

57:                                               ; preds = %51, %0, %8
  call void @llvm.lifetime.end.p0i8(i64 4, i8* nonnull %4) #3
  call void @llvm.lifetime.end.p0i8(i64 40000, i8* nonnull %3) #3
  ret i32 0
}

; Function Attrs: argmemonly mustprogress nofree nosync nounwind willreturn
declare void @llvm.lifetime.start.p0i8(i64 immarg, i8* nocapture) #1

; Function Attrs: nofree nounwind
declare noundef i32 @__isoc99_scanf(i8* nocapture noundef readonly, ...) local_unnamed_addr #2

; Function Attrs: nofree nounwind
declare noundef i32 @printf(i8* nocapture noundef readonly, ...) local_unnamed_addr #2

; Function Attrs: argmemonly mustprogress nofree nosync nounwind willreturn
declare void @llvm.lifetime.end.p0i8(i64 immarg, i8* nocapture) #1


!llvm.module.flags = !{!0, !1, !2, !3}
!llvm.ident = !{!4}

!0 = !{i32 1, !"wchar_size", i32 4}
!1 = !{i32 7, !"PIC Level", i32 2}
!2 = !{i32 7, !"PIE Level", i32 2}
!3 = !{i32 7, !"uwtable", i32 1}
!4 = !{!"clang version 13.0.0"}
!5 = !{!6, !6, i64 0}
!6 = !{!"int", !7, i64 0}
!7 = !{!"omnipotent char", !8, i64 0}
!8 = !{!"Simple C/C++ TBAA"}
!9 = distinct !{!9, !10}
!10 = !{!"llvm.loop.mustprogress"}
!11 = distinct !{!11, !10}
!12 = distinct !{!12, !10}
